; Function Attrs: mustprogress nounwind uwtable
define hidden void @_ZN7testing8internal17TestEventRepeaterD2Ev(ptr nocapture noundef nonnull align 8 dereferenceable(40) %this) unnamed_addr #7 align 2 personality ptr @__gxx_personality_v0 {
entry:
  store ptr getelementptr inbounds ({ [17 x ptr] }, ptr @_ZTVN7testing8internal17TestEventRepeaterE, i64 0, i32 0, i64 2), ptr %this, align 8
  %listeners_ = getelementptr inbounds i8, ptr %this, i64 16
  %0 = load ptr, ptr %listeners_, align 8
  %_M_finish.i.i = getelementptr inbounds i8, ptr %this, i64 24
  %1 = load ptr, ptr %_M_finish.i.i, align 8
  %cmp.i.not4.i.i = icmp eq ptr %0, %1
  br i1 %cmp.i.not4.i.i, label %invoke.cont, label %for.body.i.i

for.body.i.i:                                     ; preds = %entry, %_ZN7testing8internalL6DeleteINS_17TestEventListenerEEEvPT_.exit
  %__first.sroa.0.05.i.i = phi ptr [ %incdec.ptr.i.i.i, %_ZN7testing8internalL6DeleteINS_17TestEventListenerEEEvPT_.exit ], [ %0, %entry ]
  %2 = load ptr, ptr %__first.sroa.0.05.i.i, align 8
  %isnull.i = icmp eq ptr %2, null
  br i1 %isnull.i, label %_ZN7testing8internalL6DeleteINS_17TestEventListenerEEEvPT_.exit, label %delete.notnull.i

delete.notnull.i:                                 ; preds = %for.body.i.i
  %vtable.i = load ptr, ptr %2, align 8
  %vfn.i = getelementptr inbounds i8, ptr %vtable.i, i64 8
  %3 = load ptr, ptr %vfn.i, align 8
  tail call void %3(ptr noundef nonnull align 8 dereferenceable(8) %2) #47
  br label %_ZN7testing8internalL6DeleteINS_17TestEventListenerEEEvPT_.exit

_ZN7testing8internalL6DeleteINS_17TestEventListenerEEEvPT_.exit: ; preds = %for.body.i.i, %delete.notnull.i
  %incdec.ptr.i.i.i = getelementptr inbounds i8, ptr %__first.sroa.0.05.i.i, i64 8
  %cmp.i.not.i.i = icmp eq ptr %incdec.ptr.i.i.i, %1
  br i1 %cmp.i.not.i.i, label %invoke.contthread-pre-split, label %for.body.i.i, !llvm.loop !289

invoke.contthread-pre-split:                      ; preds = %_ZN7testing8internalL6DeleteINS_17TestEventListenerEEEvPT_.exit
  %.pr = load ptr, ptr %listeners_, align 8
  br label %invoke.cont

invoke.cont:                                      ; preds = %invoke.contthread-pre-split, %entry
  %4 = phi ptr [ %.pr, %invoke.contthread-pre-split ], [ %0, %entry ]
  %tobool.not.i.i.i = icmp eq ptr %4, null
  br i1 %tobool.not.i.i.i, label %_ZNSt6vectorIPN7testing17TestEventListenerESaIS2_EED2Ev.exit, label %if.then.i.i.i

if.then.i.i.i:                                    ; preds = %invoke.cont
  tail call void @_ZdlPv(ptr noundef nonnull %4) #51
  br label %_ZNSt6vectorIPN7testing17TestEventListenerESaIS2_EED2Ev.exit

_ZNSt6vectorIPN7testing17TestEventListenerESaIS2_EED2Ev.exit: ; preds = %invoke.cont, %if.then.i.i.i
  ret void
}